target datalayout = "e-m:e-p270:32:32-p271:32:32-p272:64:64-i64:64-i128:128-f80:128-n8:16:32:64-S128"
target triple = "x86_64-pc-linux-gnu"

%struct.DICTIONARY_ID = type { i64 }
%"class.std::__shared_count" = type { ptr }
%"class.toku::locktree" = type { ptr, %struct.DICTIONARY_ID, i32, [4 x i8], %"class.toku::comparator", ptr, ptr, ptr, ptr, %"struct.toku::lt_lock_request_info", i64, %"class.toku::range_buffer", i32, i64, i64 }
%"class.toku::comparator" = type <{ ptr, ptr, i8, [7 x i8] }>
%"struct.toku::lt_lock_request_info" = type <{ %"class.toku::omt", %"struct.std::atomic", [7 x i8], %"class.std::shared_ptr.0", i8, [7 x i8], %"struct.toku::lt_counters", %"struct.std::atomic.3", i64, %struct.toku_mutex_t, %struct.toku_cond_t, i8, [7 x i8] }>
%"class.toku::omt" = type { i8, i32, %union.anon }
%union.anon = type { %"struct.toku::omt<toku::lock_request *>::omt_array" }
%"struct.toku::omt<toku::lock_request *>::omt_array" = type { i32, i32, ptr }
%"struct.std::atomic" = type { %"struct.std::__atomic_base" }
%"struct.std::__atomic_base" = type { i8 }
%"class.std::shared_ptr.0" = type { %"class.std::__shared_ptr.1" }
%"class.std::__shared_ptr.1" = type { ptr, %"class.std::__shared_count" }
%"struct.toku::lt_counters" = type { i64, i64, i64, i64, i64 }
%"struct.std::atomic.3" = type { %"struct.std::__atomic_base.4" }
%"struct.std::__atomic_base.4" = type { i64 }
%struct.toku_mutex_t = type { %union.pthread_mutex_t, ptr }
%union.pthread_mutex_t = type { %struct.__pthread_mutex_s }
%struct.__pthread_mutex_s = type { i32, i32, i32, i32, i32, i16, i16, %struct.__pthread_internal_list }
%struct.__pthread_internal_list = type { ptr, ptr }
%struct.toku_cond_t = type { %union.pthread_cond_t, ptr }
%union.pthread_cond_t = type { %struct.__pthread_cond_s }
%struct.__pthread_cond_s = type { %union.__atomic_wide_counter, %union.__atomic_wide_counter, [2 x i32], [2 x i32], i32, i32, [2 x i32] }
%union.__atomic_wide_counter = type { i64 }
%"class.toku::range_buffer" = type <{ %class.memarena, i32, [4 x i8] }>
%class.memarena = type { %"struct.memarena::arena_chunk", ptr, i32, i64, i64 }
%"struct.memarena::arena_chunk" = type { ptr, i64, i64 }

; Function Attrs: mustprogress nounwind uwtable
define linkonce_odr void @_Z15toku_unsafe_setIiEvPT_S0_(ptr noundef %0, i32 noundef %1) #5 comdat {
  %3 = alloca ptr, align 8
  %4 = alloca i32, align 4
  store ptr %0, ptr %3, align 8, !tbaa !87
  store i32 %1, ptr %4, align 4, !tbaa !81
  %5 = load i32, ptr %4, align 4, !tbaa !81
  %6 = load ptr, ptr %3, align 8, !tbaa !87
  store i32 %5, ptr %6, align 4, !tbaa !81
  ret void
}

; Function Attrs: mustprogress uwtable
define linkonce_odr void @_Z15toku_unsafe_setIiEvRT_S0_(ptr noundef nonnull align 4 dereferenceable(4) %0, i32 noundef %1) #0 comdat {
  %3 = alloca ptr, align 8
  %4 = alloca i32, align 4
  store ptr %0, ptr %3, align 8, !tbaa !87
  store i32 %1, ptr %4, align 4, !tbaa !81
  %5 = load ptr, ptr %3, align 8, !tbaa !87
  %6 = load i32, ptr %4, align 4, !tbaa !81
  call void @_Z15toku_unsafe_setIiEvPT_S0_(ptr noundef %5, i32 noundef %6)
  ret void
}

; Function Attrs: mustprogress uwtable
define void @_ZN4toku8locktree7sto_endEv(ptr noundef nonnull align 8 dereferenceable(400) %0) #0 align 2 {
  %2 = alloca ptr, align 8
  %3 = alloca i64, align 8
  store ptr %0, ptr %2, align 8, !tbaa !4
  %4 = load ptr, ptr %2, align 8
  call void @llvm.lifetime.start.p0(i64 8, ptr %3) #18
  %5 = getelementptr inbounds nuw %"class.toku::locktree", ptr %4, i32 0, i32 11
  %6 = call noundef i64 @_ZNK4toku12range_buffer17total_memory_sizeEv(ptr noundef nonnull align 8 dereferenceable(60) %5)
  store i64 %6, ptr %3, align 8, !tbaa !46
  %7 = getelementptr inbounds nuw %"class.toku::locktree", ptr %4, i32 0, i32 0
  %8 = load ptr, ptr %7, align 8, !tbaa !15
  %9 = icmp ne ptr %8, null
  br i1 %9, label %10, label %14

10:                                               ; preds = %1
  %11 = getelementptr inbounds nuw %"class.toku::locktree", ptr %4, i32 0, i32 0
  %12 = load ptr, ptr %11, align 8, !tbaa !15
  %13 = load i64, ptr %3, align 8, !tbaa !46
  call void @_ZN4toku16locktree_manager17note_mem_releasedEm(ptr noundef nonnull align 8 dereferenceable(392) %12, i64 noundef %13)
  br label %14

14:                                               ; preds = %10, %1
  %15 = getelementptr inbounds nuw %"class.toku::locktree", ptr %4, i32 0, i32 11
  call void @_ZN4toku12range_buffer7destroyEv(ptr noundef nonnull align 8 dereferenceable(60) %15)
  %16 = getelementptr inbounds nuw %"class.toku::locktree", ptr %4, i32 0, i32 11
  call void @_ZN4toku12range_buffer6createEv(ptr noundef nonnull align 8 dereferenceable(60) %16)
  %17 = getelementptr inbounds nuw %"class.toku::locktree", ptr %4, i32 0, i32 10
  store i64 0, ptr %17, align 8, !tbaa !50
  call void @llvm.lifetime.end.p0(i64 8, ptr %3) #18
  ret void
}

; Function Attrs: mustprogress uwtable
define void @_ZN4toku8locktree27sto_end_early_no_accountingEPv(ptr noundef nonnull align 8 dereferenceable(400) %0, ptr noundef %1) #0 align 2 {
  %3 = alloca ptr, align 8
  %4 = alloca ptr, align 8
  store ptr %0, ptr %3, align 8, !tbaa !4
  store ptr %1, ptr %4, align 8, !tbaa !55
  %5 = load ptr, ptr %3, align 8
  %6 = load ptr, ptr %4, align 8, !tbaa !55
  call void @_ZN4toku8locktree33sto_migrate_buffer_ranges_to_treeEPv(ptr noundef nonnull align 8 dereferenceable(400) %5, ptr noundef %6)
  call void @_ZN4toku8locktree7sto_endEv(ptr noundef nonnull align 8 dereferenceable(400) %5)
  %7 = getelementptr inbounds nuw %"class.toku::locktree", ptr %5, i32 0, i32 12
  call void @_Z15toku_unsafe_setIiEvRT_S0_(ptr noundef nonnull align 4 dereferenceable(4) %7, i32 noundef 0)
  ret void
}

; Function Attrs: inlinehint mustprogress nounwind uwtable
define internal noundef i64 @_ZL13toku_time_nowv() #4 {
  %1 = alloca i32, align 4
  %2 = alloca i32, align 4
  call void @llvm.lifetime.start.p0(i64 4, ptr %1) #18
  call void @llvm.lifetime.start.p0(i64 4, ptr %2) #18
  %3 = call { i32, i32 } asm sideeffect "rdtsc", "={ax},={dx},~{dirflag},~{fpsr},~{flags}"() #18, !srcloc !96
  %4 = extractvalue { i32, i32 } %3, 0
  %5 = extractvalue { i32, i32 } %3, 1
  store i32 %4, ptr %1, align 4, !tbaa !81
  store i32 %5, ptr %2, align 4, !tbaa !81
  %6 = load i32, ptr %2, align 4, !tbaa !81
  %7 = zext i32 %6 to i64
  %8 = shl i64 %7, 32
  %9 = load i32, ptr %1, align 4, !tbaa !81
  %10 = zext i32 %9 to i64
  %11 = or i64 %8, %10
  call void @llvm.lifetime.end.p0(i64 4, ptr %2) #18
  call void @llvm.lifetime.end.p0(i64 4, ptr %1) #18
  ret i64 %11
}

; Function Attrs: mustprogress uwtable
define void @_ZN4toku8locktree13sto_end_earlyEPv(ptr noundef nonnull align 8 dereferenceable(400) %0, ptr noundef %1) #0 align 2 {
  %3 = alloca ptr, align 8
  %4 = alloca ptr, align 8
  %5 = alloca i64, align 8
  %6 = alloca i64, align 8
  store ptr %0, ptr %3, align 8, !tbaa !4
  store ptr %1, ptr %4, align 8, !tbaa !55
  %7 = load ptr, ptr %3, align 8
  %8 = getelementptr inbounds nuw %"class.toku::locktree", ptr %7, i32 0, i32 13
  %9 = load i64, ptr %8, align 8, !tbaa !52
  %10 = add i64 %9, 1
  store i64 %10, ptr %8, align 8, !tbaa !52
  call void @llvm.lifetime.start.p0(i64 8, ptr %5) #18
  %11 = call noundef i64 @_ZL13toku_time_nowv()
  store i64 %11, ptr %5, align 8, !tbaa !46
  %12 = load ptr, ptr %4, align 8, !tbaa !55
  call void @_ZN4toku8locktree27sto_end_early_no_accountingEPv(ptr noundef nonnull align 8 dereferenceable(400) %7, ptr noundef %12)
  call void @llvm.lifetime.start.p0(i64 8, ptr %6) #18
  %13 = call noundef i64 @_ZL13toku_time_nowv()
  store i64 %13, ptr %6, align 8, !tbaa !46
  %14 = load i64, ptr %6, align 8, !tbaa !46
  %15 = load i64, ptr %5, align 8, !tbaa !46
  %16 = sub i64 %14, %15
  %17 = getelementptr inbounds nuw %"class.toku::locktree", ptr %7, i32 0, i32 14
  %18 = load i64, ptr %17, align 8, !tbaa !53
  %19 = add i64 %18, %16
  store i64 %19, ptr %17, align 8, !tbaa !53
  call void @llvm.lifetime.end.p0(i64 8, ptr %6) #18
  call void @llvm.lifetime.end.p0(i64 8, ptr %5) #18
  ret void
}