; Function Attrs: mustprogress uwtable
define void @_ZN4toku8locktree13sto_end_earlyEPv(ptr noundef nonnull align 8 dereferenceable(400) %0, ptr noundef %1) local_unnamed_addr #0 align 2 {
  %3 = getelementptr inbounds nuw i8, ptr %0, i64 384
  %4 = load i64, ptr %3, align 8, !tbaa !86
  %5 = add i64 %4, 1
  store i64 %5, ptr %3, align 8, !tbaa !86
  %6 = tail call { i32, i32 } asm sideeffect "rdtsc", "={ax},={dx},~{dirflag},~{fpsr},~{flags}"() #21, !srcloc !87
  tail call void @_ZN4toku8locktree33sto_migrate_buffer_ranges_to_treeEPv(ptr noundef nonnull align 8 dereferenceable(400) %0, ptr noundef %1)
  %7 = getelementptr inbounds nuw i8, ptr %0, i64 312
  %8 = tail call noundef i64 @_ZNK4toku12range_buffer17total_memory_sizeEv(ptr noundef nonnull align 8 dereferenceable(60) %7)
  %9 = load ptr, ptr %0, align 8, !tbaa !4
  %.not.i.i = icmp eq ptr %9, null
  br i1 %.not.i.i, label %_ZN4toku8locktree27sto_end_early_no_accountingEPv.exit, label %10

10:                                               ; preds = %2
  tail call void @_ZN4toku16locktree_manager17note_mem_releasedEm(ptr noundef nonnull align 8 dereferenceable(392) %9, i64 noundef %8)
  br label %_ZN4toku8locktree27sto_end_early_no_accountingEPv.exit

_ZN4toku8locktree27sto_end_early_no_accountingEPv.exit: ; preds = %2, %10
  %11 = extractvalue { i32, i32 } %6, 1
  %.neg6 = sub i32 0, %11
  %.neg6.z = zext i32 %.neg6 to i64
  %.neg5 = shl nuw i64 %.neg6.z, 32
  %12 = extractvalue { i32, i32 } %6, 0
  %13 = zext i32 %12 to i64
  tail call void @_ZN4toku12range_buffer7destroyEv(ptr noundef nonnull align 8 dereferenceable(60) %7)
  tail call void @_ZN4toku12range_buffer6createEv(ptr noundef nonnull align 8 dereferenceable(60) %7)
  %14 = getelementptr inbounds nuw i8, ptr %0, i64 304
  store i64 0, ptr %14, align 8, !tbaa !45
  %15 = getelementptr inbounds nuw i8, ptr %0, i64 376
  store i32 0, ptr %15, align 8, !tbaa !53
  %16 = tail call { i32, i32 } asm sideeffect "rdtsc", "={ax},={dx},~{dirflag},~{fpsr},~{flags}"() #21, !srcloc !87
  %17 = extractvalue { i32, i32 } %16, 0
  %18 = extractvalue { i32, i32 } %16, 1
  %19 = zext i32 %18 to i64
  %20 = shl nuw i64 %19, 32
  %21 = zext i32 %17 to i64
  %.neg4 = sub i64 %.neg5, %13
  %22 = getelementptr inbounds nuw i8, ptr %0, i64 392
  %23 = load i64, ptr %22, align 8, !tbaa !88
  %24 = add i64 %.neg4, %23
  %25 = add i64 %24, %21
  %26 = add i64 %25, %20
  store i64 %26, ptr %22, align 8, !tbaa !88
  ret void
}